; Function Attrs: mustprogress nounwind uwtable
define hidden void @_ZN8expr2varD2Ev(ptr nocapture noundef nonnull readonly align 8 dereferenceable(41) %this) unnamed_addr #6 align 2 personality ptr @__gxx_personality_v0 {
entry:
  %m_mapping = getelementptr inbounds i8, ptr %this, i64 16
  %0 = load ptr, ptr %m_mapping, align 8
  %cmp.i.i = icmp eq ptr %0, null
  br i1 %cmp.i.i, label %for.end, label %_ZN6vectorIN7obj_mapI4exprjE8key_dataELb0EjE3endEv.exit

_ZN6vectorIN7obj_mapI4exprjE8key_dataELb0EjE3endEv.exit: ; preds = %entry
  %arrayidx.i.i = getelementptr inbounds i8, ptr %0, i64 -4
  %1 = load i32, ptr %arrayidx.i.i, align 4
  %2 = zext i32 %1 to i64
  %add.ptr.i = getelementptr inbounds %"struct.obj_map<expr, unsigned int>::key_data", ptr %0, i64 %2
  %cmp.not17 = icmp eq i32 %1, 0
  br i1 %cmp.not17, label %for.end, label %for.body

for.body:                                         ; preds = %_ZN6vectorIN7obj_mapI4exprjE8key_dataELb0EjE3endEv.exit, %for.inc
  %__begin1.018 = phi ptr [ %incdec.ptr, %for.inc ], [ %0, %_ZN6vectorIN7obj_mapI4exprjE8key_dataELb0EjE3endEv.exit ]
  %3 = load ptr, ptr %this, align 8
  %4 = load ptr, ptr %__begin1.018, align 8
  %tobool.not.i = icmp eq ptr %4, null
  br i1 %tobool.not.i, label %for.inc, label %if.then.i

if.then.i:                                        ; preds = %for.body
  %m_ref_count.i.i = getelementptr inbounds i8, ptr %4, i64 8
  %5 = load i32, ptr %m_ref_count.i.i, align 4
  %dec.i.i = add i32 %5, -1
  store i32 %dec.i.i, ptr %m_ref_count.i.i, align 4
  %cmp.i = icmp eq i32 %dec.i.i, 0
  br i1 %cmp.i, label %if.then2.i, label %for.inc

if.then2.i:                                       ; preds = %if.then.i
  invoke void @_ZN11ast_manager11delete_nodeEP3ast(ptr noundef nonnull align 8 dereferenceable(976) %3, ptr noundef nonnull %4)
          to label %for.inc unwind label %terminate.lpad

for.inc:                                          ; preds = %if.then.i, %for.body, %if.then2.i
  %incdec.ptr = getelementptr inbounds i8, ptr %__begin1.018, i64 16
  %cmp.not = icmp eq ptr %incdec.ptr, %add.ptr.i
  br i1 %cmp.not, label %for.end, label %for.body

for.end:                                          ; preds = %for.inc, %entry, %_ZN6vectorIN7obj_mapI4exprjE8key_dataELb0EjE3endEv.exit
  %m_recent_lim = getelementptr inbounds i8, ptr %this, i64 32
  %6 = load ptr, ptr %m_recent_lim, align 8
  %tobool.not.i.i.i = icmp eq ptr %6, null
  br i1 %tobool.not.i.i.i, label %_ZN7svectorIjjED2Ev.exit, label %if.then.i.i.i

if.then.i.i.i:                                    ; preds = %for.end
  %add.ptr.i.i.i.i = getelementptr inbounds i8, ptr %6, i64 -8
  invoke void @_ZN6memory10deallocateEPv(ptr noundef nonnull %add.ptr.i.i.i.i)
          to label %_ZN7svectorIjjED2Ev.exit unwind label %terminate.lpad.i.i

terminate.lpad.i.i:                               ; preds = %if.then.i.i.i
  %7 = landingpad { ptr, i32 }
          catch ptr null
  %8 = extractvalue { ptr, i32 } %7, 0
  tail call void @__clang_call_terminate(ptr %8) #13
  unreachable

_ZN7svectorIjjED2Ev.exit:                         ; preds = %for.end, %if.then.i.i.i
  %m_recent_exprs = getelementptr inbounds i8, ptr %this, i64 24
  %9 = load ptr, ptr %m_recent_exprs, align 8
  %tobool.not.i.i.i4 = icmp eq ptr %9, null
  br i1 %tobool.not.i.i.i4, label %_ZN10ptr_vectorI4exprED2Ev.exit, label %if.then.i.i.i5

if.then.i.i.i5:                                   ; preds = %_ZN7svectorIjjED2Ev.exit
  %add.ptr.i.i.i.i6 = getelementptr inbounds i8, ptr %9, i64 -8
  invoke void @_ZN6memory10deallocateEPv(ptr noundef nonnull %add.ptr.i.i.i.i6)
          to label %_ZN10ptr_vectorI4exprED2Ev.exit unwind label %terminate.lpad.i.i7

terminate.lpad.i.i7:                              ; preds = %if.then.i.i.i5
  %10 = landingpad { ptr, i32 }
          catch ptr null
  %11 = extractvalue { ptr, i32 } %10, 0
  tail call void @__clang_call_terminate(ptr %11) #13
  unreachable

_ZN10ptr_vectorI4exprED2Ev.exit:                  ; preds = %_ZN7svectorIjjED2Ev.exit, %if.then.i.i.i5
  %12 = load ptr, ptr %m_mapping, align 8
  %tobool.not.i.i.i8 = icmp eq ptr %12, null
  br i1 %tobool.not.i.i.i8, label %_ZN7svectorIN7obj_mapI4exprjE8key_dataEjED2Ev.exit, label %if.then.i.i.i9

if.then.i.i.i9:                                   ; preds = %_ZN10ptr_vectorI4exprED2Ev.exit
  %add.ptr.i.i.i.i10 = getelementptr inbounds i8, ptr %12, i64 -8
  invoke void @_ZN6memory10deallocateEPv(ptr noundef nonnull %add.ptr.i.i.i.i10)
          to label %_ZN7svectorIN7obj_mapI4exprjE8key_dataEjED2Ev.exit unwind label %terminate.lpad.i.i11

terminate.lpad.i.i11:                             ; preds = %if.then.i.i.i9
  %13 = landingpad { ptr, i32 }
          catch ptr null
  %14 = extractvalue { ptr, i32 } %13, 0
  tail call void @__clang_call_terminate(ptr %14) #13
  unreachable

_ZN7svectorIN7obj_mapI4exprjE8key_dataEjED2Ev.exit: ; preds = %_ZN10ptr_vectorI4exprED2Ev.exit, %if.then.i.i.i9
  %m_id2map = getelementptr inbounds i8, ptr %this, i64 8
  %15 = load ptr, ptr %m_id2map, align 8
  %tobool.not.i.i.i12 = icmp eq ptr %15, null
  br i1 %tobool.not.i.i.i12, label %_ZN7svectorIjjED2Ev.exit16, label %if.then.i.i.i13

if.then.i.i.i13:                                  ; preds = %_ZN7svectorIN7obj_mapI4exprjE8key_dataEjED2Ev.exit
  %add.ptr.i.i.i.i14 = getelementptr inbounds i8, ptr %15, i64 -8
  invoke void @_ZN6memory10deallocateEPv(ptr noundef nonnull %add.ptr.i.i.i.i14)
          to label %_ZN7svectorIjjED2Ev.exit16 unwind label %terminate.lpad.i.i15

terminate.lpad.i.i15:                             ; preds = %if.then.i.i.i13
  %16 = landingpad { ptr, i32 }
          catch ptr null
  %17 = extractvalue { ptr, i32 } %16, 0
  tail call void @__clang_call_terminate(ptr %17) #13
  unreachable

_ZN7svectorIjjED2Ev.exit16:                       ; preds = %_ZN7svectorIN7obj_mapI4exprjE8key_dataEjED2Ev.exit, %if.then.i.i.i13
  ret void

terminate.lpad:                                   ; preds = %if.then2.i
  %18 = landingpad { ptr, i32 }
          catch ptr null
  %19 = extractvalue { ptr, i32 } %18, 0
  tail call void @__clang_call_terminate(ptr %19) #13
  unreachable
}